target datalayout = "e-m:e-p270:32:32-p271:32:32-p272:64:64-i64:64-i128:128-f80:128-n8:16:32:64-S128"
target triple = "x86_64-pc-linux-gnu"

%"class.std::__cxx11::basic_string" = type { %"struct.std::__cxx11::basic_string<char>::_Alloc_hider", i64, %union.anon }
%"struct.std::__cxx11::basic_string<char>::_Alloc_hider" = type { ptr }
%union.anon = type { i64, [8 x i8] }
%"class.cvc5::parser::Smt2Lexer" = type <{ %"class.cvc5::parser::Lexer.base", [4 x i8], %"class.std::vector.3", i8, i8, %"struct.std::array", [6 x i8] }>
%"class.cvc5::parser::Lexer.base" = type <{ ptr, %"struct.cvc5::parser::Span", %"class.std::__cxx11::basic_string", %"class.std::vector", ptr, i8, [32768 x i8], [7 x i8], i64, i64, i32, i8, [3 x i8], i32 }>
%"struct.cvc5::parser::Span" = type { %"struct.cvc5::parser::Location", %"struct.cvc5::parser::Location" }
%"struct.cvc5::parser::Location" = type { i32, i32 }
%"class.std::vector" = type { %"struct.std::_Vector_base" }
%"struct.std::_Vector_base" = type { %"struct.std::_Vector_base<cvc5::parser::Token, std::allocator<cvc5::parser::Token>>::_Vector_impl" }
%"struct.std::_Vector_base<cvc5::parser::Token, std::allocator<cvc5::parser::Token>>::_Vector_impl" = type { %"struct.std::_Vector_base<cvc5::parser::Token, std::allocator<cvc5::parser::Token>>::_Vector_impl_data" }
%"struct.std::_Vector_base<cvc5::parser::Token, std::allocator<cvc5::parser::Token>>::_Vector_impl_data" = type { ptr, ptr, ptr }
%"class.std::vector.3" = type { %"struct.std::_Vector_base.4" }
%"struct.std::_Vector_base.4" = type { %"struct.std::_Vector_base<char, std::allocator<char>>::_Vector_impl" }
%"struct.std::_Vector_base<char, std::allocator<char>>::_Vector_impl" = type { %"struct.std::_Vector_base<char, std::allocator<char>>::_Vector_impl_data" }
%"struct.std::_Vector_base<char, std::allocator<char>>::_Vector_impl_data" = type { ptr, ptr, ptr }
%"struct.std::array" = type { [256 x i8] }

; Function Attrs: mustprogress nounwind uwtable
define linkonce_odr hidden noundef nonnull align 1 dereferenceable(1) ptr @_ZNSt14__array_traitsIhLm256EE6_S_refERA256_Khm(ptr noundef nonnull align 1 dereferenceable(256) %0, i64 noundef %1) #3 comdat align 2 {
  %3 = alloca ptr, align 8
  %4 = alloca i64, align 8
  store ptr %0, ptr %3, align 8, !tbaa !10
  store i64 %1, ptr %4, align 8, !tbaa !52
  %5 = load ptr, ptr %3, align 8, !tbaa !10
  %6 = load i64, ptr %4, align 8, !tbaa !52
  %7 = getelementptr inbounds nuw [256 x i8], ptr %5, i64 0, i64 %6
  ret ptr %7
}

; Function Attrs: mustprogress nounwind uwtable
define linkonce_odr hidden noundef nonnull align 1 dereferenceable(1) ptr @_ZNKSt5arrayIhLm256EEixEm(ptr noundef nonnull align 1 dereferenceable(256) %0, i64 noundef %1) #3 comdat align 2 {
  %3 = alloca ptr, align 8
  %4 = alloca i64, align 8
  store ptr %0, ptr %3, align 8, !tbaa !50
  store i64 %1, ptr %4, align 8, !tbaa !52
  %5 = load ptr, ptr %3, align 8
  %6 = getelementptr inbounds nuw %"struct.std::array", ptr %5, i32 0, i32 0
  %7 = load i64, ptr %4, align 8, !tbaa !52
  %8 = call noundef nonnull align 1 dereferenceable(1) ptr @_ZNSt14__array_traitsIhLm256EE6_S_refERA256_Khm(ptr noundef nonnull align 1 dereferenceable(256) %6, i64 noundef %7) #1
  ret ptr %8
}

; Function Attrs: mustprogress nounwind uwtable
define linkonce_odr hidden noundef zeroext i1 @_ZNK4cvc56parser9Smt2Lexer16isCharacterClassEiNS1_14CharacterClassE(ptr noundef nonnull align 8 dereferenceable(33178) %0, i32 noundef %1, i32 noundef %2) #3 comdat align 2 {
  %4 = alloca ptr, align 8
  %5 = alloca i32, align 4
  %6 = alloca i32, align 4
  store ptr %0, ptr %4, align 8, !tbaa !12
  store i32 %1, ptr %5, align 4, !tbaa !40
  store i32 %2, ptr %6, align 4, !tbaa !102
  %7 = load ptr, ptr %4, align 8
  %8 = getelementptr inbounds nuw %"class.cvc5::parser::Smt2Lexer", ptr %7, i32 0, i32 5
  %9 = load i32, ptr %5, align 4, !tbaa !40
  %10 = trunc i32 %9 to i8
  %11 = zext i8 %10 to i64
  %12 = call noundef nonnull align 1 dereferenceable(1) ptr @_ZNKSt5arrayIhLm256EEixEm(ptr noundef nonnull align 1 dereferenceable(256) %8, i64 noundef %11) #1
  %13 = load i8, ptr %12, align 1, !tbaa !41
  %14 = zext i8 %13 to i32
  %15 = load i32, ptr %6, align 4, !tbaa !102
  %16 = trunc i32 %15 to i8
  %17 = zext i8 %16 to i32
  %18 = and i32 %14, %17
  %19 = icmp ne i32 %18, 0
  ret i1 %19
}

; Function Attrs: mustprogress nounwind uwtable
define linkonce_odr hidden noundef i64 @_ZNKSt6vectorIcSaIcEE4sizeEv(ptr noundef nonnull align 8 dereferenceable(24) %0) #3 comdat align 2 {
  %2 = alloca ptr, align 8
  store ptr %0, ptr %2, align 8, !tbaa !48
  %3 = load ptr, ptr %2, align 8
  %4 = getelementptr inbounds nuw %"struct.std::_Vector_base.4", ptr %3, i32 0, i32 0
  %5 = getelementptr inbounds nuw %"struct.std::_Vector_base<char, std::allocator<char>>::_Vector_impl_data", ptr %4, i32 0, i32 1
  %6 = load ptr, ptr %5, align 8, !tbaa !106
  %7 = getelementptr inbounds nuw %"struct.std::_Vector_base.4", ptr %3, i32 0, i32 0
  %8 = getelementptr inbounds nuw %"struct.std::_Vector_base<char, std::allocator<char>>::_Vector_impl_data", ptr %7, i32 0, i32 0
  %9 = load ptr, ptr %8, align 8, !tbaa !57
  %10 = ptrtoint ptr %6 to i64
  %11 = ptrtoint ptr %9 to i64
  %12 = sub i64 %10, %11
  ret i64 %12
}

; Function Attrs: mustprogress nounwind uwtable
define linkonce_odr hidden noundef nonnull align 1 dereferenceable(1) ptr @_ZNKSt6vectorIcSaIcEEixEm(ptr noundef nonnull align 8 dereferenceable(24) %0, i64 noundef %1) #3 comdat align 2 {
  %3 = alloca ptr, align 8
  %4 = alloca i64, align 8
  store ptr %0, ptr %3, align 8, !tbaa !48
  store i64 %1, ptr %4, align 8, !tbaa !52
  %5 = load ptr, ptr %3, align 8
  %6 = getelementptr inbounds nuw %"struct.std::_Vector_base.4", ptr %5, i32 0, i32 0
  %7 = getelementptr inbounds nuw %"struct.std::_Vector_base<char, std::allocator<char>>::_Vector_impl_data", ptr %6, i32 0, i32 0
  %8 = load ptr, ptr %7, align 8, !tbaa !57
  %9 = load i64, ptr %4, align 8, !tbaa !52
  %10 = getelementptr inbounds nuw i8, ptr %8, i64 %9
  ret ptr %10
}

; Function Attrs: mustprogress uwtable
define hidden noundef i32 @_ZNK4cvc56parser9Smt2Lexer21tokenizeCurrentSymbolEv(ptr noundef nonnull align 8 dereferenceable(33178) %0) #4 align 2 {
  %2 = alloca i32, align 4
  %3 = alloca ptr, align 8
  %4 = alloca i32, align 4
  %5 = alloca i64, align 8
  %6 = alloca i64, align 8
  %7 = alloca i32, align 4
  store ptr %0, ptr %3, align 8, !tbaa !12
  %8 = load ptr, ptr %3, align 8
  %9 = getelementptr inbounds nuw %"class.cvc5::parser::Smt2Lexer", ptr %8, i32 0, i32 2
  %10 = call noundef nonnull align 1 dereferenceable(1) ptr @_ZNKSt6vectorIcSaIcEEixEm(ptr noundef nonnull align 8 dereferenceable(24) %9, i64 noundef 0) #1
  %11 = load i8, ptr %10, align 1, !tbaa !41
  %12 = sext i8 %11 to i32
  switch i32 %12, label %164 [
    i32 33, label %13
    i32 97, label %19
    i32 112, label %31
    i32 108, label %49
    i32 109, label %67
    i32 95, label %97
    i32 45, label %103
  ]

13:                                               ; preds = %1
  %14 = getelementptr inbounds nuw %"class.cvc5::parser::Smt2Lexer", ptr %8, i32 0, i32 2
  %15 = call noundef i64 @_ZNKSt6vectorIcSaIcEE4sizeEv(ptr noundef nonnull align 8 dereferenceable(24) %14) #1
  %16 = icmp eq i64 %15, 1
  br i1 %16, label %17, label %18

17:                                               ; preds = %13
  store i32 5, ptr %2, align 4
  br label %166

18:                                               ; preds = %13
  br label %165

19:                                               ; preds = %1
  %20 = getelementptr inbounds nuw %"class.cvc5::parser::Smt2Lexer", ptr %8, i32 0, i32 2
  %21 = call noundef i64 @_ZNKSt6vectorIcSaIcEE4sizeEv(ptr noundef nonnull align 8 dereferenceable(24) %20) #1
  %22 = icmp eq i64 %21, 2
  br i1 %22, label %23, label %30

23:                                               ; preds = %19
  %24 = getelementptr inbounds nuw %"class.cvc5::parser::Smt2Lexer", ptr %8, i32 0, i32 2
  %25 = call noundef nonnull align 1 dereferenceable(1) ptr @_ZNKSt6vectorIcSaIcEEixEm(ptr noundef nonnull align 8 dereferenceable(24) %24, i64 noundef 1) #1
  %26 = load i8, ptr %25, align 1, !tbaa !41
  %27 = sext i8 %26 to i32
  %28 = icmp eq i32 %27, 115
  br i1 %28, label %29, label %30

29:                                               ; preds = %23
  store i32 4, ptr %2, align 4
  br label %166

30:                                               ; preds = %23, %19
  br label %165

31:                                               ; preds = %1
  %32 = getelementptr inbounds nuw %"class.cvc5::parser::Smt2Lexer", ptr %8, i32 0, i32 2
  %33 = call noundef i64 @_ZNKSt6vectorIcSaIcEE4sizeEv(ptr noundef nonnull align 8 dereferenceable(24) %32) #1
  %34 = icmp eq i64 %33, 3
  br i1 %34, label %35, label %48

35:                                               ; preds = %31
  %36 = getelementptr inbounds nuw %"class.cvc5::parser::Smt2Lexer", ptr %8, i32 0, i32 2
  %37 = call noundef nonnull align 1 dereferenceable(1) ptr @_ZNKSt6vectorIcSaIcEEixEm(ptr noundef nonnull align 8 dereferenceable(24) %36, i64 noundef 1) #1
  %38 = load i8, ptr %37, align 1, !tbaa !41
  %39 = sext i8 %38 to i32
  %40 = icmp eq i32 %39, 97
  br i1 %40, label %41, label %48

41:                                               ; preds = %35
  %42 = getelementptr inbounds nuw %"class.cvc5::parser::Smt2Lexer", ptr %8, i32 0, i32 2
  %43 = call noundef nonnull align 1 dereferenceable(1) ptr @_ZNKSt6vectorIcSaIcEEixEm(ptr noundef nonnull align 8 dereferenceable(24) %42, i64 noundef 2) #1
  %44 = load i8, ptr %43, align 1, !tbaa !41
  %45 = sext i8 %44 to i32
  %46 = icmp eq i32 %45, 114
  br i1 %46, label %47, label %48

47:                                               ; preds = %41
  store i32 66, ptr %2, align 4
  br label %166

48:                                               ; preds = %41, %35, %31
  br label %165

49:                                               ; preds = %1
  %50 = getelementptr inbounds nuw %"class.cvc5::parser::Smt2Lexer", ptr %8, i32 0, i32 2
  %51 = call noundef i64 @_ZNKSt6vectorIcSaIcEE4sizeEv(ptr noundef nonnull align 8 dereferenceable(24) %50) #1
  %52 = icmp eq i64 %51, 3
  br i1 %52, label %53, label %66

53:                                               ; preds = %49
  %54 = getelementptr inbounds nuw %"class.cvc5::parser::Smt2Lexer", ptr %8, i32 0, i32 2
  %55 = call noundef nonnull align 1 dereferenceable(1) ptr @_ZNKSt6vectorIcSaIcEEixEm(ptr noundef nonnull align 8 dereferenceable(24) %54, i64 noundef 1) #1
  %56 = load i8, ptr %55, align 1, !tbaa !41
  %57 = sext i8 %56 to i32
  %58 = icmp eq i32 %57, 101
  br i1 %58, label %59, label %66

59:                                               ; preds = %53
  %60 = getelementptr inbounds nuw %"class.cvc5::parser::Smt2Lexer", ptr %8, i32 0, i32 2
  %61 = call noundef nonnull align 1 dereferenceable(1) ptr @_ZNKSt6vectorIcSaIcEEixEm(ptr noundef nonnull align 8 dereferenceable(24) %60, i64 noundef 2) #1
  %62 = load i8, ptr %61, align 1, !tbaa !41
  %63 = sext i8 %62 to i32
  %64 = icmp eq i32 %63, 116
  br i1 %64, label %65, label %66

65:                                               ; preds = %59
  store i32 62, ptr %2, align 4
  br label %166

66:                                               ; preds = %59, %53, %49
  br label %165

67:                                               ; preds = %1
  %68 = getelementptr inbounds nuw %"class.cvc5::parser::Smt2Lexer", ptr %8, i32 0, i32 2
  %69 = call noundef i64 @_ZNKSt6vectorIcSaIcEE4sizeEv(ptr noundef nonnull align 8 dereferenceable(24) %68) #1
  %70 = icmp eq i64 %69, 5
  br i1 %70, label %71, label %96

71:                                               ; preds = %67
  %72 = getelementptr inbounds nuw %"class.cvc5::parser::Smt2Lexer", ptr %8, i32 0, i32 2
  %73 = call noundef nonnull align 1 dereferenceable(1) ptr @_ZNKSt6vectorIcSaIcEEixEm(ptr noundef nonnull align 8 dereferenceable(24) %72, i64 noundef 1) #1
  %74 = load i8, ptr %73, align 1, !tbaa !41
  %75 = sext i8 %74 to i32
  %76 = icmp eq i32 %75, 97
  br i1 %76, label %77, label %96

77:                                               ; preds = %71
  %78 = getelementptr inbounds nuw %"class.cvc5::parser::Smt2Lexer", ptr %8, i32 0, i32 2
  %79 = call noundef nonnull align 1 dereferenceable(1) ptr @_ZNKSt6vectorIcSaIcEEixEm(ptr noundef nonnull align 8 dereferenceable(24) %78, i64 noundef 2) #1
  %80 = load i8, ptr %79, align 1, !tbaa !41
  %81 = sext i8 %80 to i32
  %82 = icmp eq i32 %81, 116
  br i1 %82, label %83, label %96

83:                                               ; preds = %77
  %84 = getelementptr inbounds nuw %"class.cvc5::parser::Smt2Lexer", ptr %8, i32 0, i32 2
  %85 = call noundef nonnull align 1 dereferenceable(1) ptr @_ZNKSt6vectorIcSaIcEEixEm(ptr noundef nonnull align 8 dereferenceable(24) %84, i64 noundef 3) #1
  %86 = load i8, ptr %85, align 1, !tbaa !41
  %87 = sext i8 %86 to i32
  %88 = icmp eq i32 %87, 99
  br i1 %88, label %89, label %96

89:                                               ; preds = %83
  %90 = getelementptr inbounds nuw %"class.cvc5::parser::Smt2Lexer", ptr %8, i32 0, i32 2
  %91 = call noundef nonnull align 1 dereferenceable(1) ptr @_ZNKSt6vectorIcSaIcEEixEm(ptr noundef nonnull align 8 dereferenceable(24) %90, i64 noundef 4) #1
  %92 = load i8, ptr %91, align 1, !tbaa !41
  %93 = sext i8 %92 to i32
  %94 = icmp eq i32 %93, 104
  br i1 %94, label %95, label %96

95:                                               ; preds = %89
  store i32 64, ptr %2, align 4
  br label %166

96:                                               ; preds = %89, %83, %77, %71, %67
  br label %165

97:                                               ; preds = %1
  %98 = getelementptr inbounds nuw %"class.cvc5::parser::Smt2Lexer", ptr %8, i32 0, i32 2
  %99 = call noundef i64 @_ZNKSt6vectorIcSaIcEE4sizeEv(ptr noundef nonnull align 8 dereferenceable(24) %98) #1
  %100 = icmp eq i64 %99, 1
  br i1 %100, label %101, label %102

101:                                              ; preds = %97
  store i32 58, ptr %2, align 4
  br label %166

102:                                              ; preds = %97
  br label %165

103:                                              ; preds = %1
  %104 = getelementptr inbounds nuw %"class.cvc5::parser::Smt2Lexer", ptr %8, i32 0, i32 3
  %105 = load i8, ptr %104, align 8, !tbaa !20, !range !18, !noundef !19
  %106 = trunc i8 %105 to i1
  br i1 %106, label %163, label %107

107:                                              ; preds = %103
  %108 = getelementptr inbounds nuw %"class.cvc5::parser::Smt2Lexer", ptr %8, i32 0, i32 2
  %109 = call noundef i64 @_ZNKSt6vectorIcSaIcEE4sizeEv(ptr noundef nonnull align 8 dereferenceable(24) %108) #1
  %110 = icmp uge i64 %109, 2
  br i1 %110, label %111, label %163

111:                                              ; preds = %107
  call void @llvm.lifetime.start.p0(i64 4, ptr %4) #1
  store i32 59, ptr %4, align 4, !tbaa !62
  call void @llvm.lifetime.start.p0(i64 8, ptr %5) #1
  store i64 1, ptr %5, align 8, !tbaa !52
  call void @llvm.lifetime.start.p0(i64 8, ptr %6) #1
  %112 = getelementptr inbounds nuw %"class.cvc5::parser::Smt2Lexer", ptr %8, i32 0, i32 2
  %113 = call noundef i64 @_ZNKSt6vectorIcSaIcEE4sizeEv(ptr noundef nonnull align 8 dereferenceable(24) %112) #1
  store i64 %113, ptr %6, align 8, !tbaa !52
  br label %114

114:                                              ; preds = %155, %111
  %115 = load i64, ptr %5, align 8, !tbaa !52
  %116 = load i64, ptr %6, align 8, !tbaa !52
  %117 = icmp ult i64 %115, %116
  br i1 %117, label %119, label %118

118:                                              ; preds = %114
  store i32 3, ptr %7, align 4
  br label %158

119:                                              ; preds = %114
  %120 = getelementptr inbounds nuw %"class.cvc5::parser::Smt2Lexer", ptr %8, i32 0, i32 2
  %121 = load i64, ptr %5, align 8, !tbaa !52
  %122 = call noundef nonnull align 1 dereferenceable(1) ptr @_ZNKSt6vectorIcSaIcEEixEm(ptr noundef nonnull align 8 dereferenceable(24) %120, i64 noundef %121) #1
  %123 = load i8, ptr %122, align 1, !tbaa !41
  %124 = sext i8 %123 to i32
  %125 = call noundef zeroext i1 @_ZNK4cvc56parser9Smt2Lexer16isCharacterClassEiNS1_14CharacterClassE(ptr noundef nonnull align 8 dereferenceable(33178) %8, i32 noundef %124, i32 noundef 2)
  br i1 %125, label %126, label %127

126:                                              ; preds = %119
  br label %155

127:                                              ; preds = %119
  %128 = load i64, ptr %5, align 8, !tbaa !52
  %129 = add i64 %128, 1
  %130 = load i64, ptr %6, align 8, !tbaa !52
  %131 = icmp ult i64 %129, %130
  br i1 %131, label %132, label %153

132:                                              ; preds = %127
  %133 = load i32, ptr %4, align 4, !tbaa !62
  %134 = icmp eq i32 %133, 59
  br i1 %134, label %135, label %153

135:                                              ; preds = %132
  %136 = getelementptr inbounds nuw %"class.cvc5::parser::Smt2Lexer", ptr %8, i32 0, i32 2
  %137 = load i64, ptr %5, align 8, !tbaa !52
  %138 = call noundef nonnull align 1 dereferenceable(1) ptr @_ZNKSt6vectorIcSaIcEEixEm(ptr noundef nonnull align 8 dereferenceable(24) %136, i64 noundef %137) #1
  %139 = load i8, ptr %138, align 1, !tbaa !41
  %140 = sext i8 %139 to i32
  %141 = icmp eq i32 %140, 46
  br i1 %141, label %142, label %143

142:                                              ; preds = %135
  store i32 14, ptr %4, align 4, !tbaa !62
  br label %155

143:                                              ; preds = %135
  %144 = getelementptr inbounds nuw %"class.cvc5::parser::Smt2Lexer", ptr %8, i32 0, i32 2
  %145 = load i64, ptr %5, align 8, !tbaa !52
  %146 = call noundef nonnull align 1 dereferenceable(1) ptr @_ZNKSt6vectorIcSaIcEEixEm(ptr noundef nonnull align 8 dereferenceable(24) %144, i64 noundef %145) #1
  %147 = load i8, ptr %146, align 1, !tbaa !41
  %148 = sext i8 %147 to i32
  %149 = icmp eq i32 %148, 47
  br i1 %149, label %150, label %151

150:                                              ; preds = %143
  store i32 70, ptr %4, align 4, !tbaa !62
  br label %155

151:                                              ; preds = %143
  br label %152

152:                                              ; preds = %151
  br label %153

153:                                              ; preds = %152, %132, %127
  br label %154

154:                                              ; preds = %153
  store i32 80, ptr %2, align 4
  store i32 1, ptr %7, align 4
  br label %158

155:                                              ; preds = %150, %142, %126
  %156 = load i64, ptr %5, align 8, !tbaa !52
  %157 = add i64 %156, 1
  store i64 %157, ptr %5, align 8, !tbaa !52
  br label %114, !llvm.loop !105

158:                                              ; preds = %154, %118
  call void @llvm.lifetime.end.p0(i64 8, ptr %6) #1
  call void @llvm.lifetime.end.p0(i64 8, ptr %5) #1
  %159 = load i32, ptr %7, align 4
  switch i32 %159, label %162 [
    i32 3, label %160
  ]

160:                                              ; preds = %158
  %161 = load i32, ptr %4, align 4, !tbaa !62
  store i32 %161, ptr %2, align 4
  store i32 1, ptr %7, align 4
  br label %162

162:                                              ; preds = %160, %158
  call void @llvm.lifetime.end.p0(i64 4, ptr %4) #1
  br label %166

163:                                              ; preds = %107, %103
  br label %165

164:                                              ; preds = %1
  br label %165

165:                                              ; preds = %164, %163, %102, %96, %66, %48, %30, %18
  store i32 80, ptr %2, align 4
  br label %166

166:                                              ; preds = %165, %162, %101, %95, %65, %47, %29, %17
  %167 = load i32, ptr %2, align 4
  ret i32 %167
}