; Function Attrs: mustprogress nofree norecurse nosync nounwind willreturn memory(read, inaccessiblemem: none) uwtable
define hidden noundef range(i32 4, 81) i32 @_ZNK4cvc56parser9Smt2Lexer21tokenizeCurrentSymbolEv(ptr noundef nonnull readonly align 8 captures(none) dereferenceable(33178) %0) local_unnamed_addr #10 align 2 {
  %2 = getelementptr inbounds nuw i8, ptr %0, i64 32896
  %3 = load ptr, ptr %2, align 8, !tbaa !41
  %4 = load i8, ptr %3, align 1, !tbaa !13
  switch i8 %4, label %107 [
    i8 33, label %5
    i8 97, label %12
    i8 112, label %23
    i8 108, label %38
    i8 109, label %53
    i8 95, label %76
    i8 45, label %83
  ]

5:                                                ; preds = %1
  %6 = getelementptr inbounds nuw i8, ptr %0, i64 32904
  %7 = load ptr, ptr %6, align 8, !tbaa !44
  %8 = ptrtoint ptr %7 to i64
  %9 = ptrtoint ptr %3 to i64
  %10 = sub i64 %8, %9
  %11 = icmp eq i64 %10, 1
  br i1 %11, label %.loopexit, label %107

12:                                               ; preds = %1
  %13 = getelementptr inbounds nuw i8, ptr %0, i64 32904
  %14 = load ptr, ptr %13, align 8, !tbaa !44
  %15 = ptrtoint ptr %14 to i64
  %16 = ptrtoint ptr %3 to i64
  %17 = sub i64 %15, %16
  %18 = icmp eq i64 %17, 2
  br i1 %18, label %19, label %107

19:                                               ; preds = %12
  %20 = getelementptr inbounds nuw i8, ptr %3, i64 1
  %21 = load i8, ptr %20, align 1, !tbaa !13
  %22 = icmp eq i8 %21, 115
  br i1 %22, label %.loopexit, label %107

23:                                               ; preds = %1
  %24 = getelementptr inbounds nuw i8, ptr %0, i64 32904
  %25 = load ptr, ptr %24, align 8, !tbaa !44
  %26 = ptrtoint ptr %25 to i64
  %27 = ptrtoint ptr %3 to i64
  %28 = sub i64 %26, %27
  %29 = icmp eq i64 %28, 3
  br i1 %29, label %30, label %107

30:                                               ; preds = %23
  %31 = getelementptr inbounds nuw i8, ptr %3, i64 1
  %32 = load i8, ptr %31, align 1, !tbaa !13
  %33 = icmp eq i8 %32, 97
  br i1 %33, label %34, label %107

34:                                               ; preds = %30
  %35 = getelementptr inbounds nuw i8, ptr %3, i64 2
  %36 = load i8, ptr %35, align 1, !tbaa !13
  %37 = icmp eq i8 %36, 114
  br i1 %37, label %.loopexit, label %107

38:                                               ; preds = %1
  %39 = getelementptr inbounds nuw i8, ptr %0, i64 32904
  %40 = load ptr, ptr %39, align 8, !tbaa !44
  %41 = ptrtoint ptr %40 to i64
  %42 = ptrtoint ptr %3 to i64
  %43 = sub i64 %41, %42
  %44 = icmp eq i64 %43, 3
  br i1 %44, label %45, label %107

45:                                               ; preds = %38
  %46 = getelementptr inbounds nuw i8, ptr %3, i64 1
  %47 = load i8, ptr %46, align 1, !tbaa !13
  %48 = icmp eq i8 %47, 101
  br i1 %48, label %49, label %107

49:                                               ; preds = %45
  %50 = getelementptr inbounds nuw i8, ptr %3, i64 2
  %51 = load i8, ptr %50, align 1, !tbaa !13
  %52 = icmp eq i8 %51, 116
  br i1 %52, label %.loopexit, label %107

53:                                               ; preds = %1
  %54 = getelementptr inbounds nuw i8, ptr %0, i64 32904
  %55 = load ptr, ptr %54, align 8, !tbaa !44
  %56 = ptrtoint ptr %55 to i64
  %57 = ptrtoint ptr %3 to i64
  %58 = sub i64 %56, %57
  %59 = icmp eq i64 %58, 5
  br i1 %59, label %60, label %107

60:                                               ; preds = %53
  %61 = getelementptr inbounds nuw i8, ptr %3, i64 1
  %62 = load i8, ptr %61, align 1, !tbaa !13
  %63 = icmp eq i8 %62, 97
  br i1 %63, label %64, label %107

64:                                               ; preds = %60
  %65 = getelementptr inbounds nuw i8, ptr %3, i64 2
  %66 = load i8, ptr %65, align 1, !tbaa !13
  %67 = icmp eq i8 %66, 116
  br i1 %67, label %68, label %107

68:                                               ; preds = %64
  %69 = getelementptr inbounds nuw i8, ptr %3, i64 3
  %70 = load i8, ptr %69, align 1, !tbaa !13
  %71 = icmp eq i8 %70, 99
  br i1 %71, label %72, label %107

72:                                               ; preds = %68
  %73 = getelementptr inbounds nuw i8, ptr %3, i64 4
  %74 = load i8, ptr %73, align 1, !tbaa !13
  %75 = icmp eq i8 %74, 104
  br i1 %75, label %.loopexit, label %107

76:                                               ; preds = %1
  %77 = getelementptr inbounds nuw i8, ptr %0, i64 32904
  %78 = load ptr, ptr %77, align 8, !tbaa !44
  %79 = ptrtoint ptr %78 to i64
  %80 = ptrtoint ptr %3 to i64
  %81 = sub i64 %79, %80
  %82 = icmp eq i64 %81, 1
  br i1 %82, label %.loopexit, label %107

83:                                               ; preds = %1
  %84 = getelementptr inbounds nuw i8, ptr %0, i64 32920
  %85 = load i8, ptr %84, align 8, !tbaa !17, !range !42, !noundef !43
  %86 = trunc nuw i8 %85 to i1
  br i1 %86, label %107, label %87

87:                                               ; preds = %83
  %88 = getelementptr inbounds nuw i8, ptr %0, i64 32904
  %89 = load ptr, ptr %88, align 8, !tbaa !44
  %90 = ptrtoint ptr %89 to i64
  %91 = ptrtoint ptr %3 to i64
  %92 = sub i64 %90, %91
  %93 = icmp ugt i64 %92, 1
  br i1 %93, label %.preheader, label %107

.preheader:                                       ; preds = %87
  %94 = getelementptr inbounds nuw i8, ptr %0, i64 32922
  br label %95

95:                                               ; preds = %.preheader, %._crit_edge
  %.01420 = phi i64 [ 1, %.preheader ], [ %102, %._crit_edge ]
  %.01519 = phi i32 [ 59, %.preheader ], [ %.116, %._crit_edge ]
  %96 = getelementptr inbounds nuw i8, ptr %3, i64 %.01420
  %97 = load i8, ptr %96, align 1, !tbaa !13
  %98 = zext i8 %97 to i64
  %99 = getelementptr inbounds nuw [256 x i8], ptr %94, i64 0, i64 %98
  %100 = load i8, ptr %99, align 1, !tbaa !13
  %101 = and i8 %100, 2
  %.not18 = icmp eq i8 %101, 0
  %102 = add nuw i64 %.01420, 1
  br i1 %.not18, label %103, label %._crit_edge

103:                                              ; preds = %95
  %104 = icmp ult i64 %102, %92
  %105 = icmp eq i32 %.01519, 59
  %or.cond = select i1 %104, i1 %105, i1 false
  br i1 %or.cond, label %106, label %.loopexit

106:                                              ; preds = %103
  switch i8 %97, label %.loopexit [
    i8 46, label %._crit_edge
    i8 47, label %.fold.split
  ]

.fold.split:                                      ; preds = %106
  br label %._crit_edge

._crit_edge:                                      ; preds = %95, %106, %.fold.split
  %.116 = phi i32 [ 14, %106 ], [ 70, %.fold.split ], [ %.01519, %95 ]
  %exitcond.not = icmp eq i64 %102, %92
  br i1 %exitcond.not, label %.loopexit, label %95, !llvm.loop !63

107:                                              ; preds = %1, %83, %87, %76, %53, %60, %64, %68, %72, %38, %45, %49, %23, %30, %34, %12, %19, %5
  br label %.loopexit

.loopexit:                                        ; preds = %._crit_edge, %103, %106, %76, %72, %49, %34, %19, %5, %107
  %.013 = phi i32 [ 80, %107 ], [ 5, %5 ], [ 4, %19 ], [ 66, %34 ], [ 62, %49 ], [ 64, %72 ], [ 58, %76 ], [ %.116, %._crit_edge ], [ 80, %103 ], [ 80, %106 ]
  ret i32 %.013
}